; Function Attrs: mustprogress nofree norecurse nounwind memory(read, argmem: readwrite, inaccessiblemem: readwrite) uwtable
define hidden void @_ZN5XPage5resetEv(ptr noundef nonnull align 8 dereferenceable(136) %0) local_unnamed_addr #4 align 2 {
  %2 = load i32, ptr @XGlobalSeqNum, align 4
  %3 = getelementptr inbounds i8, ptr %0, i64 4
  store i32 %2, ptr %3, align 4
  %4 = getelementptr inbounds i8, ptr %0, i64 8
  %5 = load i64, ptr %4, align 8
  %6 = getelementptr inbounds i8, ptr %0, i64 24
  store volatile i64 %5, ptr %6, align 8
  %7 = getelementptr inbounds i8, ptr %0, i64 32
  store volatile i32 0, ptr %7, align 8
  %8 = getelementptr inbounds i8, ptr %0, i64 96
  store i64 0, ptr %8, align 8
  ret void
}